target datalayout = "e-m:e-p270:32:32-p271:32:32-p272:64:64-i64:64-i128:128-f80:128-n8:16:32:64-S128"
target triple = "x86_64-pc-linux-gnu"

; Function Attrs: nounwind uwtable
define internal double @trc_iec61966_2_1(double noundef %0) #0 {
  %2 = alloca double, align 8
  %3 = alloca double, align 8
  %4 = alloca double, align 8
  store double %0, ptr %2, align 8, !tbaa !27
  call void @llvm.lifetime.start.p0(i64 8, ptr %3) #7
  store double 1.055000e+00, ptr %3, align 8, !tbaa !27
  call void @llvm.lifetime.start.p0(i64 8, ptr %4) #7
  store double 3.130800e-03, ptr %4, align 8, !tbaa !27
  %5 = load double, ptr %2, align 8, !tbaa !27
  %6 = fcmp nsz ogt double 0.000000e+00, %5
  br i1 %6, label %7, label %8

7:                                                ; preds = %1
  br label %20

8:                                                ; preds = %1
  %9 = load double, ptr %2, align 8, !tbaa !27
  %10 = fcmp nsz ogt double 3.130800e-03, %9
  br i1 %10, label %11, label %14

11:                                               ; preds = %8
  %12 = load double, ptr %2, align 8, !tbaa !27
  %13 = fmul nsz double 1.292000e+01, %12
  br label %18

14:                                               ; preds = %8
  %15 = load double, ptr %2, align 8, !tbaa !27
  %16 = call nsz double @llvm.pow.f64(double %15, double 0x3FDAAAAAAAAAAAAB)
  %17 = call nsz double @llvm.fmuladd.f64(double 1.055000e+00, double %16, double 0xBFAC28F5C28F5C20)
  br label %18

18:                                               ; preds = %14, %11
  %19 = phi nsz double [ %13, %11 ], [ %17, %14 ]
  br label %20

20:                                               ; preds = %18, %7
  %21 = phi nsz double [ 0.000000e+00, %7 ], [ %19, %18 ]
  call void @llvm.lifetime.end.p0(i64 8, ptr %4) #7
  call void @llvm.lifetime.end.p0(i64 8, ptr %3) #7
  ret double %21
}